target datalayout = "e-m:e-p270:32:32-p271:32:32-p272:64:64-i64:64-i128:128-f80:128-n8:16:32:64-S128"
target triple = "x86_64-pc-linux-gnu"

@.str.4 = private unnamed_addr constant [2 x i8] c"\0A\00", align 1
@.str.5 = private unnamed_addr constant [37 x i8] c"    opt_merge [options] [selection]\0A\00", align 1
@.str.6 = private unnamed_addr constant [78 x i8] c"This pass identifies cells with identical type and input signals. Such cells\0A\00", align 1
@.str.7 = private unnamed_addr constant [30 x i8] c"are then merged to one cell.\0A\00", align 1
@.str.8 = private unnamed_addr constant [12 x i8] c"    -nomux\0A\00", align 1
@.str.9 = private unnamed_addr constant [33 x i8] c"        Do not merge MUX cells.\0A\00", align 1
@.str.10 = private unnamed_addr constant [16 x i8] c"    -share_all\0A\00", align 1
@.str.11 = private unnamed_addr constant [61 x i8] c"        Operate on all cell types, not just built-in types.\0A\00", align 1
@.str.12 = private unnamed_addr constant [13 x i8] c"    -keepdc\0A\00", align 1
@.str.13 = private unnamed_addr constant [77 x i8] c"        Do not merge flipflops with don't-care bits in their initial value.\0A\00", align 1

; Function Attrs: mustprogress uwtable
define internal void @_ZN12_GLOBAL__N_112OptMergePass4helpEv(ptr noundef nonnull align 8 dereferenceable(104) %0) unnamed_addr #4 align 2 {
  %2 = alloca ptr, align 8
  store ptr %0, ptr %2, align 8, !tbaa !6
  call void (ptr, ...) @_ZN5Yosys3logEPKcz(ptr noundef @.str.4)
  call void (ptr, ...) @_ZN5Yosys3logEPKcz(ptr noundef @.str.5)
  call void (ptr, ...) @_ZN5Yosys3logEPKcz(ptr noundef @.str.4)
  call void (ptr, ...) @_ZN5Yosys3logEPKcz(ptr noundef @.str.6)
  call void (ptr, ...) @_ZN5Yosys3logEPKcz(ptr noundef @.str.7)
  call void (ptr, ...) @_ZN5Yosys3logEPKcz(ptr noundef @.str.4)
  call void (ptr, ...) @_ZN5Yosys3logEPKcz(ptr noundef @.str.8)
  call void (ptr, ...) @_ZN5Yosys3logEPKcz(ptr noundef @.str.9)
  call void (ptr, ...) @_ZN5Yosys3logEPKcz(ptr noundef @.str.4)
  call void (ptr, ...) @_ZN5Yosys3logEPKcz(ptr noundef @.str.10)
  call void (ptr, ...) @_ZN5Yosys3logEPKcz(ptr noundef @.str.11)
  call void (ptr, ...) @_ZN5Yosys3logEPKcz(ptr noundef @.str.4)
  call void (ptr, ...) @_ZN5Yosys3logEPKcz(ptr noundef @.str.12)
  call void (ptr, ...) @_ZN5Yosys3logEPKcz(ptr noundef @.str.13)
  call void (ptr, ...) @_ZN5Yosys3logEPKcz(ptr noundef @.str.4)
  ret void
}